; Function Attrs: mustprogress nounwind uwtable
define dso_local void @_ZN4llvm10TimerGroup8clearAllEv() local_unnamed_addr #0 align 2 {
  %1 = load atomic i64, ptr @_ZL9TimerLock acquire, align 8
  %.not.i = icmp eq i64 %1, 0
  br i1 %.not.i, label %2, label %_ZN4llvm13ManagedStaticINS_3sys10SmartMutexILb1EEENS_14object_creatorIS3_EENS_14object_deleterIS3_EEEdeEv.exit

2:                                                ; preds = %0
  tail call void @_ZNK4llvm17ManagedStaticBase21RegisterManagedStaticEPFPvvEPFvS1_E(ptr noundef nonnull align 8 dereferenceable(24) @_ZL9TimerLock, ptr noundef nonnull @_ZN4llvm14object_creatorINS_3sys10SmartMutexILb1EEEE4callEv, ptr noundef nonnull @_ZN4llvm14object_deleterINS_3sys10SmartMutexILb1EEEE4callEPv) #19
  br label %_ZN4llvm13ManagedStaticINS_3sys10SmartMutexILb1EEENS_14object_creatorIS3_EENS_14object_deleterIS3_EEEdeEv.exit

_ZN4llvm13ManagedStaticINS_3sys10SmartMutexILb1EEENS_14object_creatorIS3_EENS_14object_deleterIS3_EEEdeEv.exit: ; preds = %0, %2
  %3 = load atomic i64, ptr @_ZL9TimerLock monotonic, align 8
  %.0.i2.i = inttoptr i64 %3 to ptr
  %4 = tail call noundef i32 @pthread_mutex_lock(ptr noundef nonnull %.0.i2.i) #19
  %.not.i.i.i = icmp eq i32 %4, 0
  br i1 %.not.i.i.i, label %_ZNSt10lock_guardIN4llvm3sys10SmartMutexILb1EEEEC2ERS3_.exit.preheader, label %5

_ZNSt10lock_guardIN4llvm3sys10SmartMutexILb1EEEEC2ERS3_.exit.preheader: ; preds = %_ZN4llvm13ManagedStaticINS_3sys10SmartMutexILb1EEENS_14object_creatorIS3_EENS_14object_deleterIS3_EEEdeEv.exit
  %.04 = load ptr, ptr @_ZL14TimerGroupList, align 8
  %.not5 = icmp eq ptr %.04, null
  br i1 %.not5, label %_ZNSt10lock_guardIN4llvm3sys10SmartMutexILb1EEEEC2ERS3_.exit._crit_edge, label %.lr.ph

5:                                                ; preds = %_ZN4llvm13ManagedStaticINS_3sys10SmartMutexILb1EEENS_14object_creatorIS3_EENS_14object_deleterIS3_EEEdeEv.exit
  tail call void @_ZSt20__throw_system_errori(i32 noundef %4) #22
  unreachable

.lr.ph:                                           ; preds = %_ZNSt10lock_guardIN4llvm3sys10SmartMutexILb1EEEEC2ERS3_.exit.preheader, %_ZN4llvm10TimerGroup5clearEv.exit
  %.06 = phi ptr [ %.0, %_ZN4llvm10TimerGroup5clearEv.exit ], [ %.04, %_ZNSt10lock_guardIN4llvm3sys10SmartMutexILb1EEEEC2ERS3_.exit.preheader ]
  %6 = load atomic i64, ptr @_ZL9TimerLock acquire, align 8
  %.not.i.i = icmp eq i64 %6, 0
  br i1 %.not.i.i, label %7, label %_ZN4llvm13ManagedStaticINS_3sys10SmartMutexILb1EEENS_14object_creatorIS3_EENS_14object_deleterIS3_EEEdeEv.exit.i

7:                                                ; preds = %.lr.ph
  tail call void @_ZNK4llvm17ManagedStaticBase21RegisterManagedStaticEPFPvvEPFvS1_E(ptr noundef nonnull align 8 dereferenceable(24) @_ZL9TimerLock, ptr noundef nonnull @_ZN4llvm14object_creatorINS_3sys10SmartMutexILb1EEEE4callEv, ptr noundef nonnull @_ZN4llvm14object_deleterINS_3sys10SmartMutexILb1EEEE4callEPv) #19
  br label %_ZN4llvm13ManagedStaticINS_3sys10SmartMutexILb1EEENS_14object_creatorIS3_EENS_14object_deleterIS3_EEEdeEv.exit.i

_ZN4llvm13ManagedStaticINS_3sys10SmartMutexILb1EEENS_14object_creatorIS3_EENS_14object_deleterIS3_EEEdeEv.exit.i: ; preds = %7, %.lr.ph
  %8 = load atomic i64, ptr @_ZL9TimerLock monotonic, align 8
  %.0.i2.i.i = inttoptr i64 %8 to ptr
  %9 = tail call noundef i32 @pthread_mutex_lock(ptr noundef nonnull %.0.i2.i.i) #19
  %.not.i.i.i.i = icmp eq i32 %9, 0
  br i1 %.not.i.i.i.i, label %_ZNSt10lock_guardIN4llvm3sys10SmartMutexILb1EEEEC2ERS3_.exit.i, label %10

10:                                               ; preds = %_ZN4llvm13ManagedStaticINS_3sys10SmartMutexILb1EEENS_14object_creatorIS3_EENS_14object_deleterIS3_EEEdeEv.exit.i
  tail call void @_ZSt20__throw_system_errori(i32 noundef %9) #22
  unreachable

_ZNSt10lock_guardIN4llvm3sys10SmartMutexILb1EEEEC2ERS3_.exit.i: ; preds = %_ZN4llvm13ManagedStaticINS_3sys10SmartMutexILb1EEENS_14object_creatorIS3_EENS_14object_deleterIS3_EEEdeEv.exit.i
  %11 = getelementptr inbounds nuw i8, ptr %.06, i64 64
  %.04.i = load ptr, ptr %11, align 8
  %.not5.i = icmp eq ptr %.04.i, null
  br i1 %.not5.i, label %_ZN4llvm10TimerGroup5clearEv.exit, label %.lr.ph.i

.lr.ph.i:                                         ; preds = %_ZNSt10lock_guardIN4llvm3sys10SmartMutexILb1EEEEC2ERS3_.exit.i, %.lr.ph.i
  %.06.i = phi ptr [ %.0.i, %.lr.ph.i ], [ %.04.i, %_ZNSt10lock_guardIN4llvm3sys10SmartMutexILb1EEEEC2ERS3_.exit.i ]
  %12 = getelementptr inbounds nuw i8, ptr %.06.i, i64 145
  store i8 0, ptr %12, align 1
  %13 = getelementptr inbounds nuw i8, ptr %.06.i, i64 144
  store i8 0, ptr %13, align 8
  tail call void @llvm.memset.p0.i64(ptr noundef nonnull align 8 dereferenceable(80) %.06.i, i8 0, i64 80, i1 false)
  %14 = getelementptr inbounds nuw i8, ptr %.06.i, i64 168
  %.0.i = load ptr, ptr %14, align 8
  %.not.i3 = icmp eq ptr %.0.i, null
  br i1 %.not.i3, label %_ZN4llvm10TimerGroup5clearEv.exit, label %.lr.ph.i, !llvm.loop !70

_ZN4llvm10TimerGroup5clearEv.exit:                ; preds = %.lr.ph.i, %_ZNSt10lock_guardIN4llvm3sys10SmartMutexILb1EEEEC2ERS3_.exit.i
  %15 = tail call noundef i32 @pthread_mutex_unlock(ptr noundef nonnull %.0.i2.i.i) #19
  %16 = getelementptr inbounds nuw i8, ptr %.06, i64 104
  %.0 = load ptr, ptr %16, align 8
  %.not = icmp eq ptr %.0, null
  br i1 %.not, label %_ZNSt10lock_guardIN4llvm3sys10SmartMutexILb1EEEEC2ERS3_.exit._crit_edge, label %.lr.ph, !llvm.loop !72

_ZNSt10lock_guardIN4llvm3sys10SmartMutexILb1EEEEC2ERS3_.exit._crit_edge: ; preds = %_ZN4llvm10TimerGroup5clearEv.exit, %_ZNSt10lock_guardIN4llvm3sys10SmartMutexILb1EEEEC2ERS3_.exit.preheader
  %17 = tail call noundef i32 @pthread_mutex_unlock(ptr noundef nonnull %.0.i2.i) #19
  ret void
}